Certificate:
    Data:
        Version: 3 (0x2)
        Serial Number: 1 (0x1)
    Signature Algorithm: sha1WithRSAEncryption
        Issuer: C=US, O=Trilio, OU=Trilio Certificate Authority, CN=Trilio TLS CA
        Validity
            Not Before: Aug  1 14:11:41 2017 GMT
            Not After : Dec 31 23:59:59 2030 GMT
        Subject: C=US, O=Trilio, OU=Trilio Certificate Authority, CN=Trilio TLS CA
        Subject Public Key Info:
            Public Key Algorithm: rsaEncryption
                Public-Key: (2048 bit)
                Modulus:
                    00:bb:9a:cb:b6:71:ac:ae:53:25:2b:39:c2:d7:7d:
                    9c:78:2b:f1:c6:6d:49:6e:c6:79:5a:48:55:16:2e:
                    74:95:b8:1c:d8:3e:06:b5:bd:b1:c5:78:de:63:e2:
                    9e:10:2e:14:c8:a2:df:64:1f:9c:30:51:ad:13:8d:
                    a4:37:b7:55:ce:6c:d4:01:6a:28:9c:29:61:1c:28:
                    9a:15:6f:c9:36:71:fa:7e:3d:55:f3:ce:0e:81:68:
                    40:b3:67:82:59:78:4f:ee:24:63:11:60:0d:ba:11:
                    cf:bb:26:6c:7e:82:0a:68:9e:fd:ed:b5:9c:7c:3b:
                    2c:07:ce:09:e1:29:24:e9:b5:8c:a3:1d:21:8d:45:
                    a7:62:0c:96:d0:e7:21:d0:4b:cd:e1:1e:7a:cc:33:
                    69:33:4c:05:a5:3a:90:46:4b:5b:d8:62:e2:e5:b5:
                    36:cb:64:c5:e7:d8:2b:37:79:f0:bc:2a:26:ce:6a:
                    8d:8d:df:0a:48:31:62:4b:fe:3a:78:6b:46:98:44:
                    e4:24:3f:dc:62:85:9c:4d:2a:e0:f3:fe:e0:bd:12:
                    00:41:d5:4b:05:e9:c1:e7:e2:87:e0:1e:78:d5:e6:
                    f6:be:ba:39:97:a0:63:9a:cc:e6:cd:c4:32:29:34:
                    a5:2f:09:c9:59:c0:f5:70:02:75:f3:fc:d0:b5:d7:
                    4a:1f
                Exponent: 65537 (0x10001)
        X509v3 extensions:
            X509v3 Key Usage: critical
                Certificate Sign, CRL Sign
            X509v3 Basic Constraints: critical
                CA:TRUE
            X509v3 Subject Key Identifier: 
                3C:3E:A4:CB:46:32:BF:AF:0F:6E:15:FD:ED:D8:DB:6F:7B:A0:CE:BC
            X509v3 Authority Key Identifier: 
                keyid:3C:3E:A4:CB:46:32:BF:AF:0F:6E:15:FD:ED:D8:DB:6F:7B:A0:CE:BC

    Signature Algorithm: sha1WithRSAEncryption
         6c:1b:62:d8:5d:05:35:52:aa:0e:89:d6:25:18:79:07:70:75:
         eb:5d:27:d8:cc:41:a8:3c:90:d9:41:2c:2a:33:59:69:50:cb:
         07:ec:e2:8f:27:12:9d:a9:ca:8e:75:8b:9b:1f:6c:49:30:cf:
         8d:e6:72:3f:b0:35:c5:4e:49:cb:58:59:62:0a:16:bd:b2:80:
         18:30:12:6f:f5:bf:83:c8:4a:1e:7d:4b:3f:a8:c9:30:31:f4:
         1c:fd:88:0d:e8:d6:06:6f:be:d3:5f:62:fa:bf:ce:2b:1a:12:
         1a:c6:c0:ad:29:09:99:20:26:2a:23:a4:b3:13:63:5b:c1:e4:
         07:2b:a6:63:5d:f1:1b:ae:f0:34:59:7d:c7:53:bd:1e:ef:d3:
         7f:2b:44:a0:77:c7:ff:ea:6f:00:2d:31:dd:d4:69:b5:0c:8b:
         a4:ae:a9:04:16:94:46:4d:6b:fa:dd:7f:a8:b1:1e:e9:36:33:
         04:95:1c:94:5d:56:05:77:97:ef:e7:81:a5:cc:e1:c7:b5:73:
         d8:3e:e9:75:c9:ae:94:fc:c6:30:87:c9:75:96:d7:e9:c9:18:
         3d:8b:3f:45:3d:ae:fc:a2:c3:90:6e:66:f4:15:df:93:e2:e2:
         60:25:39:fd:18:cc:a1:11:b7:f5:24:f7:0a:31:8e:e1:0f:38:
         10:98:39:73
-----BEGIN CERTIFICATE-----
MIIDmjCCAoKgAwIBAgIBATANBgkqhkiG9w0BAQUFADBdMQswCQYDVQQGEwJVUzEP
MA0GA1UECgwGVHJpbGlvMSUwIwYDVQQLDBxUcmlsaW8gQ2VydGlmaWNhdGUgQXV0
aG9yaXR5MRYwFAYDVQQDDA1UcmlsaW8gVExTIENBMCAXDTE3MDgwMTE0MTE0MVoY
DzIwMzAxMjMxMjM1OTU5WjBdMQswCQYDVQQGEwJVUzEPMA0GA1UECgwGVHJpbGlv
MSUwIwYDVQQLDBxUcmlsaW8gQ2VydGlmaWNhdGUgQXV0aG9yaXR5MRYwFAYDVQQD
DA1UcmlsaW8gVExTIENBMIIBIjANBgkqhkiG9w0BAQEFAAOCAQ8AMIIBCgKCAQEA
u5rLtnGsrlMlKznC132ceCvxxm1JbsZ5WkhVFi50lbgc2D4Gtb2xxXjeY+KeEC4U
yKLfZB+cMFGtE42kN7dVzmzUAWoonClhHCiaFW/JNnH6fj1V884OgWhAs2eCWXhP
7iRjEWANuhHPuyZsfoIKaJ797bWcfDssB84J4Skk6bWMox0hjUWnYgyW0Och0EvN
4R56zDNpM0wFpTqQRktb2GLi5bU2y2TF59grN3nwvComzmqNjd8KSDFiS/46eGtG
mETkJD/cYoWcTSrg8/7gvRIAQdVLBenB5+KH4B541eb2vro5l6BjmszmzcQyKTSl
LwnJWcD1cAJ18/zQtddKHwIDAQABo2MwYTAOBgNVHQ8BAf8EBAMCAQYwDwYDVR0T
AQH/BAUwAwEB/zAdBgNVHQ4EFgQUPD6ky0Yyv68PbhX97djbb3ugzrwwHwYDVR0j
BBgwFoAUPD6ky0Yyv68PbhX97djbb3ugzrwwDQYJKoZIhvcNAQEFBQADggEBAGwb
YthdBTVSqg6J1iUYeQdwdetdJ9jMQag8kNlBLCozWWlQywfs4o8nEp2pyo51i5sf
bEkwz43mcj+wNcVOSctYWWIKFr2ygBgwEm/1v4PISh59Sz+oyTAx9Bz9iA3o1gZv
vtNfYvq/zisaEhrGwK0pCZkgJiojpLMTY1vB5AcrpmNd8Ruu8DRZfcdTvR7v038r
RKB3x//qbwAtMd3UabUMi6SuqQQWlEZNa/rdf6ixHuk2MwSVHJRdVgV3l+/ngaXM
4ce1c9g+6XXJrpT8xjCHyXWW1+nJGD2LP0U9rvyiw5BuZvQV35Pi4mAlOf0YzKER
t/Uk9woxjuEPOBCYOXM=
-----END CERTIFICATE-----
