Certificate:
    Data:
        Version: 3 (0x2)
        Serial Number: 1 (0x1)
    Signature Algorithm: sha1WithRSAEncryption
        Issuer: C=US, O=Trilio, OU=Trilio Certificate Authority, CN=Trilio TLS CA
        Validity
            Not Before: Aug  1 14:12:42 2017 GMT
            Not After : Aug  1 14:12:42 2019 GMT
        Subject: C=US, ST=MS, L=Boston, O=Trilio, OU=TVault, CN=tvault-controller.trilio.test
        Subject Public Key Info:
            Public Key Algorithm: rsaEncryption
                Public-Key: (2048 bit)
                Modulus:
                    00:e6:5d:22:3a:56:32:92:16:7b:b1:04:31:62:18:
                    65:1e:3a:1d:04:8a:02:d0:5c:10:b4:91:e8:97:63:
                    bb:b7:d8:1e:4a:04:a6:c3:fc:d8:09:fa:c6:d8:bc:
                    c7:8f:46:4e:40:9b:9e:f3:d5:a1:cc:6a:70:0a:2d:
                    e3:a3:03:8a:04:17:9d:42:f8:71:4d:25:6c:9f:4a:
                    83:ef:aa:d6:2d:d3:ba:fb:80:95:63:d1:54:8e:be:
                    98:70:5b:d2:1b:37:fe:fa:f1:ef:4f:61:c3:66:e2:
                    3f:68:e3:20:ae:d0:82:55:d7:ad:0c:6a:13:44:4f:
                    4e:aa:1a:23:e1:d3:f8:8b:01:67:d8:f1:8a:83:ff:
                    16:27:ef:5d:f8:73:4c:a6:61:a8:1d:4e:d7:dc:24:
                    df:af:43:a6:fc:09:03:4e:a7:79:74:73:59:48:8e:
                    cd:e9:a8:12:cd:63:df:99:2c:df:4b:9c:67:80:58:
                    c6:55:ad:09:48:8a:c3:6d:5a:03:ae:e5:46:a8:5f:
                    5a:1d:3a:f0:b7:38:cc:2e:b1:f5:2d:26:f7:10:3e:
                    00:ab:5f:93:c1:12:13:ca:24:3f:14:c9:c4:1d:b6:
                    7a:f9:8c:89:94:39:b9:b9:31:17:9d:3f:35:89:4b:
                    6e:d3:d1:09:0b:f6:32:a2:78:e1:01:f2:b8:e3:84:
                    f9:c7
                Exponent: 65537 (0x10001)
        X509v3 extensions:
            X509v3 Key Usage: critical
                Digital Signature, Key Encipherment
            X509v3 Basic Constraints: 
                CA:FALSE
            X509v3 Extended Key Usage: 
                TLS Web Server Authentication, TLS Web Client Authentication
            X509v3 Subject Key Identifier: 
                6F:3D:8A:48:8F:AB:22:3B:24:5E:DF:8F:DB:8B:7D:27:D0:19:04:4D
            X509v3 Authority Key Identifier: 
                keyid:98:77:4A:B1:99:30:53:F7:0D:DC:CB:20:CF:19:94:45:EB:22:EB:0F

            Authority Information Access: 
                CA Issuers - URI:http://green.no/ca/tls-ca.cer

            X509v3 CRL Distribution Points: 

                Full Name:
                  URI:http://green.no/ca/tls-ca.crl

            X509v3 Subject Alternative Name: 
                DNS:trilio.test, DNS:tvault-controller.trilio.test
    Signature Algorithm: sha1WithRSAEncryption
         ab:8a:fb:90:0d:5f:79:66:86:76:ec:f3:88:fe:67:80:4a:88:
         eb:db:28:48:e4:a1:78:04:89:eb:23:07:d5:7a:0c:df:82:68:
         0a:f3:df:65:e1:5a:4e:af:7a:07:90:e1:a9:8c:eb:34:de:00:
         6c:b4:b1:92:48:fa:b9:20:f0:54:c3:41:33:e8:28:fa:b3:0d:
         eb:0e:88:9c:b6:eb:17:56:ee:62:3a:0b:5f:00:dd:0d:84:9d:
         35:9a:d6:d5:5c:7e:e0:84:69:90:7f:64:f6:df:d4:91:cf:eb:
         4c:ed:9f:6c:8c:4f:46:6b:37:57:9f:9a:02:29:ad:fb:9e:7e:
         e4:67:b6:e2:01:9f:35:fe:6e:81:c9:89:93:03:76:31:2b:e2:
         ba:68:5e:5d:22:5b:16:87:b6:44:c8:01:a6:6e:7a:69:eb:07:
         fe:ef:df:20:99:fb:27:4d:a5:5a:76:2b:1a:c2:a5:ed:0b:06:
         44:33:7c:27:b8:d6:a5:0c:e5:93:c0:a3:01:bf:75:b3:9f:76:
         56:a0:54:bd:48:da:db:fc:8e:b1:a6:9f:36:4e:39:fa:54:51:
         4e:77:d9:b4:41:bf:98:c3:d4:8a:d2:a6:73:a8:8d:f1:49:e8:
         b4:b5:fd:b9:55:69:b1:c7:36:60:b1:88:27:3f:d1:8f:72:15:
         09:87:14:d7
-----BEGIN CERTIFICATE-----
MIIEbzCCA1egAwIBAgIBATANBgkqhkiG9w0BAQUFADBdMQswCQYDVQQGEwJVUzEP
MA0GA1UECgwGVHJpbGlvMSUwIwYDVQQLDBxUcmlsaW8gQ2VydGlmaWNhdGUgQXV0
aG9yaXR5MRYwFAYDVQQDDA1UcmlsaW8gVExTIENBMB4XDTE3MDgwMTE0MTI0MloX
DTE5MDgwMTE0MTI0MlowdTELMAkGA1UEBhMCVVMxCzAJBgNVBAgMAk1TMQ8wDQYD
VQQHDAZCb3N0b24xDzANBgNVBAoMBlRyaWxpbzEPMA0GA1UECwwGVFZhdWx0MSYw
JAYDVQQDDB10dmF1bHQtY29udHJvbGxlci50cmlsaW8udGVzdDCCASIwDQYJKoZI
hvcNAQEBBQADggEPADCCAQoCggEBAOZdIjpWMpIWe7EEMWIYZR46HQSKAtBcELSR
6Jdju7fYHkoEpsP82An6xti8x49GTkCbnvPVocxqcAot46MDigQXnUL4cU0lbJ9K
g++q1i3TuvuAlWPRVI6+mHBb0hs3/vrx709hw2biP2jjIK7QglXXrQxqE0RPTqoa
I+HT+IsBZ9jxioP/FifvXfhzTKZhqB1O19wk369DpvwJA06neXRzWUiOzemoEs1j
35ks30ucZ4BYxlWtCUiKw21aA67lRqhfWh068Lc4zC6x9S0m9xA+AKtfk8ESE8ok
PxTJxB22evmMiZQ5ubkxF50/NYlLbtPRCQv2MqJ44QHyuOOE+ccCAwEAAaOCASAw
ggEcMA4GA1UdDwEB/wQEAwIFoDAJBgNVHRMEAjAAMB0GA1UdJQQWMBQGCCsGAQUF
BwMBBggrBgEFBQcDAjAdBgNVHQ4EFgQUbz2KSI+rIjskXt+P24t9J9AZBE0wHwYD
VR0jBBgwFoAUmHdKsZkwU/cN3MsgzxmUResi6w8wOQYIKwYBBQUHAQEELTArMCkG
CCsGAQUFBzAChh1odHRwOi8vZ3JlZW4ubm8vY2EvdGxzLWNhLmNlcjAuBgNVHR8E
JzAlMCOgIaAfhh1odHRwOi8vZ3JlZW4ubm8vY2EvdGxzLWNhLmNybDA1BgNVHREE
LjAsggt0cmlsaW8udGVzdIIddHZhdWx0LWNvbnRyb2xsZXIudHJpbGlvLnRlc3Qw
DQYJKoZIhvcNAQEFBQADggEBAKuK+5ANX3lmhnbs84j+Z4BKiOvbKEjkoXgEiesj
B9V6DN+CaArz32XhWk6vegeQ4amM6zTeAGy0sZJI+rkg8FTDQTPoKPqzDesOiJy2
6xdW7mI6C18A3Q2EnTWa1tVcfuCEaZB/ZPbf1JHP60ztn2yMT0ZrN1efmgIprfue
fuRntuIBnzX+boHJiZMDdjEr4rpoXl0iWxaHtkTIAaZuemnrB/7v3yCZ+ydNpVp2
KxrCpe0LBkQzfCe41qUM5ZPAowG/dbOfdlagVL1I2tv8jrGmnzZOOfpUUU532bRB
v5jD1IrSpnOojfFJ6LS1/blVabHHNmCxiCc/0Y9yFQmHFNc=
-----END CERTIFICATE-----
