Certificate:
    Data:
        Version: 3 (0x2)
        Serial Number: 2 (0x2)
    Signature Algorithm: sha1WithRSAEncryption
        Issuer: C=US, O=Trilio, OU=Trilio Certificate Authority, CN=Trilio TLS CA
        Validity
            Not Before: Aug  1 14:11:58 2017 GMT
            Not After : Aug  1 14:11:58 2027 GMT
        Subject: C=US, O=Trilio, OU=Trilio Certificate Authority, CN=Trilio TLS CA
        Subject Public Key Info:
            Public Key Algorithm: rsaEncryption
                Public-Key: (2048 bit)
                Modulus:
                    00:b7:c6:9a:d1:c9:d5:d8:91:f0:a5:01:99:6b:ef:
                    40:b8:ae:8f:76:79:b7:ec:56:4c:cf:a5:c8:43:2a:
                    eb:67:5b:e1:69:31:89:d1:34:eb:f4:51:14:75:70:
                    c3:65:35:85:ff:1d:ab:b5:3d:34:45:79:6f:3c:b3:
                    ba:46:e7:95:0f:70:ef:d6:cb:a1:c4:be:c2:07:18:
                    f3:ba:16:7c:40:4f:2d:23:62:35:e7:64:0a:65:6b:
                    78:13:ae:0c:71:ea:84:fd:30:76:5d:97:fa:58:d4:
                    d0:82:bd:4e:5f:ea:aa:7d:c9:47:68:29:bb:dd:65:
                    32:b8:42:da:f9:1f:5a:31:c0:dc:76:03:ac:de:a8:
                    ac:e3:25:83:9a:d8:93:e9:e4:6d:54:ef:09:36:95:
                    cd:d1:59:ac:9b:da:96:31:89:87:96:a0:86:de:50:
                    70:e1:72:4c:f2:81:8c:bb:fe:f1:fe:21:b7:c3:01:
                    d8:43:71:22:6b:8b:c4:df:d3:e3:80:c4:ca:c2:63:
                    bd:85:55:e8:57:a4:71:48:b5:34:bb:54:79:49:73:
                    ab:c7:fb:66:45:d2:69:51:79:50:98:76:6d:cb:7f:
                    c5:a8:9c:92:76:3f:33:0c:09:31:33:8a:12:26:25:
                    39:99:79:1c:4c:25:82:3c:60:e5:ff:80:3f:e1:40:
                    69:5b
                Exponent: 65537 (0x10001)
        X509v3 extensions:
            X509v3 Key Usage: critical
                Certificate Sign, CRL Sign
            X509v3 Basic Constraints: critical
                CA:TRUE, pathlen:0
            X509v3 Subject Key Identifier: 
                98:77:4A:B1:99:30:53:F7:0D:DC:CB:20:CF:19:94:45:EB:22:EB:0F
            X509v3 Authority Key Identifier: 
                keyid:3C:3E:A4:CB:46:32:BF:AF:0F:6E:15:FD:ED:D8:DB:6F:7B:A0:CE:BC

            Authority Information Access: 
                CA Issuers - URI:http://green.no/ca/root-ca.cer

            X509v3 CRL Distribution Points: 

                Full Name:
                  URI:http://green.no/ca/root-ca.crl

    Signature Algorithm: sha1WithRSAEncryption
         6f:2b:c0:f6:ad:71:bd:76:48:e5:13:42:2c:26:0b:77:8c:a7:
         ab:8e:78:dc:e2:18:8d:07:31:87:82:00:c4:cd:aa:bb:fc:84:
         34:f3:fa:bc:2e:d1:44:3f:96:81:ac:c8:6d:11:54:1d:02:cf:
         2c:6f:2d:c8:f2:0c:27:d0:d8:7b:f5:04:6d:c2:8b:0c:c2:8c:
         48:c7:08:62:2d:82:51:9d:84:86:08:cb:89:9d:e7:fd:2f:04:
         1e:a0:c9:a0:dd:2c:ff:a6:f9:7b:c2:1e:3e:82:f8:1d:26:e0:
         1e:63:b4:43:bc:a5:dc:91:77:a1:15:5d:e2:e9:ea:5e:16:b1:
         bd:d5:f7:bd:15:39:e6:01:a7:b7:64:1d:05:ed:f3:d4:53:75:
         22:8f:af:2b:f2:2f:8d:55:77:1e:d6:cb:b0:4f:46:c1:19:01:
         e7:bf:c0:42:d8:ef:81:59:86:82:e1:4d:32:45:7c:21:b0:49:
         62:9a:c9:cd:ba:5c:a7:f8:b5:cc:4f:99:fe:82:ed:63:17:b6:
         9f:84:f9:5e:56:88:4b:70:88:eb:ae:58:9a:9f:c9:ad:e0:6f:
         06:b7:ec:0a:e9:3d:ff:a6:fa:58:61:df:a3:48:35:a5:01:d1:
         a2:df:2b:25:dd:dd:97:ca:d4:98:aa:c9:0e:8d:82:8e:c1:ca:
         87:eb:42:0a
-----BEGIN CERTIFICATE-----
MIIECjCCAvKgAwIBAgIBAjANBgkqhkiG9w0BAQUFADBdMQswCQYDVQQGEwJVUzEP
MA0GA1UECgwGVHJpbGlvMSUwIwYDVQQLDBxUcmlsaW8gQ2VydGlmaWNhdGUgQXV0
aG9yaXR5MRYwFAYDVQQDDA1UcmlsaW8gVExTIENBMB4XDTE3MDgwMTE0MTE1OFoX
DTI3MDgwMTE0MTE1OFowXTELMAkGA1UEBhMCVVMxDzANBgNVBAoMBlRyaWxpbzEl
MCMGA1UECwwcVHJpbGlvIENlcnRpZmljYXRlIEF1dGhvcml0eTEWMBQGA1UEAwwN
VHJpbGlvIFRMUyBDQTCCASIwDQYJKoZIhvcNAQEBBQADggEPADCCAQoCggEBALfG
mtHJ1diR8KUBmWvvQLiuj3Z5t+xWTM+lyEMq62db4WkxidE06/RRFHVww2U1hf8d
q7U9NEV5bzyzukbnlQ9w79bLocS+wgcY87oWfEBPLSNiNedkCmVreBOuDHHqhP0w
dl2X+ljU0IK9Tl/qqn3JR2gpu91lMrhC2vkfWjHA3HYDrN6orOMlg5rYk+nkbVTv
CTaVzdFZrJvaljGJh5aght5QcOFyTPKBjLv+8f4ht8MB2ENxImuLxN/T44DEysJj
vYVV6FekcUi1NLtUeUlzq8f7ZkXSaVF5UJh2bct/xaicknY/MwwJMTOKEiYlOZl5
HEwlgjxg5f+AP+FAaVsCAwEAAaOB1DCB0TAOBgNVHQ8BAf8EBAMCAQYwEgYDVR0T
AQH/BAgwBgEB/wIBADAdBgNVHQ4EFgQUmHdKsZkwU/cN3MsgzxmUResi6w8wHwYD
VR0jBBgwFoAUPD6ky0Yyv68PbhX97djbb3ugzrwwOgYIKwYBBQUHAQEELjAsMCoG
CCsGAQUFBzAChh5odHRwOi8vZ3JlZW4ubm8vY2Evcm9vdC1jYS5jZXIwLwYDVR0f
BCgwJjAkoCKgIIYeaHR0cDovL2dyZWVuLm5vL2NhL3Jvb3QtY2EuY3JsMA0GCSqG
SIb3DQEBBQUAA4IBAQBvK8D2rXG9dkjlE0IsJgt3jKerjnjc4hiNBzGHggDEzaq7
/IQ08/q8LtFEP5aBrMhtEVQdAs8sby3I8gwn0Nh79QRtwosMwoxIxwhiLYJRnYSG
CMuJnef9LwQeoMmg3Sz/pvl7wh4+gvgdJuAeY7RDvKXckXehFV3i6epeFrG91fe9
FTnmAae3ZB0F7fPUU3Uij68r8i+NVXce1suwT0bBGQHnv8BC2O+BWYaC4U0yRXwh
sElimsnNulyn+LXMT5n+gu1jF7afhPleVohLcIjrrlian8mt4G8Gt+wK6T3/pvpY
Yd+jSDWlAdGi3ysl3d2XytSYqskOjYKOwcqH60IK
-----END CERTIFICATE-----
